; Function Attrs: inlinehint mustprogress nounwind uwtable
define internal void @_ZN8QuantLib12_GLOBAL__N_116FdmSchemeWrapperINS_19ExplicitEulerSchemeEED0Ev(ptr noundef nonnull align 8 dereferenceable(16) %this) unnamed_addr #4 align 2 personality ptr @__gxx_personality_v0 {
entry:
  store ptr getelementptr inbounds inrange(-16, 32) (i8, ptr @_ZTVN8QuantLib12_GLOBAL__N_116FdmSchemeWrapperINS_19ExplicitEulerSchemeEEE, i64 16), ptr %this, align 8, !tbaa !33
  %scheme_.i = getelementptr inbounds nuw i8, ptr %this, i64 8
  %0 = load ptr, ptr %scheme_.i, align 8, !tbaa !3
  %cmp.not.i.i = icmp eq ptr %0, null
  br i1 %cmp.not.i.i, label %_ZN8QuantLib12_GLOBAL__N_116FdmSchemeWrapperINS_19ExplicitEulerSchemeEED2Ev.exit, label %if.then.i.i

if.then.i.i:                                      ; preds = %entry
  tail call void @_ZNKSt14default_deleteIN8QuantLib19ExplicitEulerSchemeEEclEPS1_(ptr noundef nonnull align 1 dereferenceable(1) %scheme_.i, ptr noundef nonnull %0)
  br label %_ZN8QuantLib12_GLOBAL__N_116FdmSchemeWrapperINS_19ExplicitEulerSchemeEED2Ev.exit

_ZN8QuantLib12_GLOBAL__N_116FdmSchemeWrapperINS_19ExplicitEulerSchemeEED2Ev.exit: ; preds = %entry, %if.then.i.i
  tail call void @_ZdlPvm(ptr noundef nonnull %this, i64 noundef 16) #34
  ret void
}